; ModuleID = 'source-C-CXX/26/1331.c'
source_filename = "source-C-CXX/26/1331.c"
target datalayout = "e-m:e-p270:32:32-p271:32:32-p272:64:64-i64:64-f80:128-n8:16:32:64-S128"
target triple = "x86_64-pc-linux-gnu"

@.str = private unnamed_addr constant [3 x i8] c"%d\00", align 1
@.str.1 = private unnamed_addr constant [10 x i8] c"%lf%lf%lf\00", align 1
@.str.2 = private unnamed_addr constant [10 x i8] c"x1=%.5lf;\00", align 1
@.str.3 = private unnamed_addr constant [10 x i8] c"x2=%.5lf\0A\00", align 1
@.str.4 = private unnamed_addr constant [13 x i8] c"x1=x2=%.5lf\0A\00", align 1
@.str.5 = private unnamed_addr constant [17 x i8] c"x1=%.5lf+%.5lfi;\00", align 1
@.str.6 = private unnamed_addr constant [17 x i8] c"x2=%.5lf-%.5lfi\0A\00", align 1

; Function Attrs: nofree nounwind sspstrong uwtable
define dso_local i32 @main() local_unnamed_addr #0 {
  %1 = alloca i32, align 4
  %2 = alloca double, align 8
  %3 = alloca double, align 8
  %4 = alloca double, align 8
  %5 = bitcast i32* %1 to i8*
  call void @llvm.lifetime.start.p0i8(i64 4, i8* nonnull %5) #4
  %6 = call i32 (i8*, ...) @__isoc99_scanf(i8* getelementptr inbounds ([3 x i8], [3 x i8]* @.str, i64 0, i64 0), i32* nonnull %1)
  %7 = bitcast double* %2 to i8*
  call void @llvm.lifetime.start.p0i8(i64 8, i8* nonnull %7) #4
  %8 = bitcast double* %3 to i8*
  call void @llvm.lifetime.start.p0i8(i64 8, i8* nonnull %8) #4
  %9 = bitcast double* %4 to i8*
  call void @llvm.lifetime.start.p0i8(i64 8, i8* nonnull %9) #4
  %10 = load i32, i32* %1, align 4, !tbaa !5
  %11 = icmp sgt i32 %10, 0
  br i1 %11, label %12, label %104

12:                                               ; preds = %0, %100
  %13 = phi i32 [ %101, %100 ], [ 0, %0 ]
  %14 = call i32 (i8*, ...) @__isoc99_scanf(i8* getelementptr inbounds ([10 x i8], [10 x i8]* @.str.1, i64 0, i64 0), double* nonnull %2, double* nonnull %3, double* nonnull %4)
  %15 = load double, double* %3, align 8, !tbaa !9
  %16 = fmul double %15, %15
  %17 = load double, double* %2, align 8, !tbaa !9
  %18 = fmul double %17, 4.000000e+00
  %19 = load double, double* %4, align 8, !tbaa !9
  %20 = fmul double %18, %19
  %21 = fsub double %16, %20
  %22 = fcmp ogt double %21, 0.000000e+00
  br i1 %22, label %23, label %50

23:                                               ; preds = %12
  %24 = call double @sqrt(double %21) #4
  %25 = fsub double %24, %15
  %26 = load double, double* %2, align 8, !tbaa !9
  %27 = fmul double %26, 2.000000e+00
  %28 = fdiv double %25, %27
  %29 = load double, double* %3, align 8, !tbaa !9
  %30 = fneg double %29
  %31 = fmul double %29, %29
  %32 = fmul double %26, 4.000000e+00
  %33 = load double, double* %4, align 8, !tbaa !9
  %34 = fmul double %32, %33
  %35 = fsub double %31, %34
  %36 = call double @sqrt(double %35) #4
  %37 = fsub double %30, %36
  %38 = load double, double* %2, align 8, !tbaa !9
  %39 = fmul double %38, 2.000000e+00
  %40 = fdiv double %37, %39
  %41 = call i32 (i8*, ...) @printf(i8* nonnull dereferenceable(1) getelementptr inbounds ([10 x i8], [10 x i8]* @.str.2, i64 0, i64 0), double %28)
  %42 = call i32 (i8*, ...) @printf(i8* nonnull dereferenceable(1) getelementptr inbounds ([10 x i8], [10 x i8]* @.str.3, i64 0, i64 0), double %40)
  %43 = load double, double* %3, align 8, !tbaa !9
  %44 = load double, double* %2, align 8, !tbaa !9
  %45 = load double, double* %4, align 8, !tbaa !9
  %46 = fmul double %43, %43
  %47 = fmul double %44, 4.000000e+00
  %48 = fmul double %47, %45
  %49 = fsub double %46, %48
  br label %50

50:                                               ; preds = %23, %12
  %51 = phi double [ %49, %23 ], [ %21, %12 ]
  %52 = phi double [ %48, %23 ], [ %20, %12 ]
  %53 = phi double [ %46, %23 ], [ %16, %12 ]
  %54 = phi double [ %44, %23 ], [ %17, %12 ]
  %55 = phi double [ %43, %23 ], [ %15, %12 ]
  %56 = fcmp oeq double %51, 0.000000e+00
  br i1 %56, label %57, label %69

57:                                               ; preds = %50
  %58 = fneg double %55
  %59 = fmul double %54, 2.000000e+00
  %60 = fdiv double %58, %59
  %61 = call i32 (i8*, ...) @printf(i8* nonnull dereferenceable(1) getelementptr inbounds ([13 x i8], [13 x i8]* @.str.4, i64 0, i64 0), double %60)
  %62 = load double, double* %3, align 8, !tbaa !9
  %63 = load double, double* %2, align 8, !tbaa !9
  %64 = load double, double* %4, align 8, !tbaa !9
  %65 = fmul double %62, %62
  %66 = fmul double %63, 4.000000e+00
  %67 = fmul double %66, %64
  %68 = fsub double %65, %67
  br label %69

69:                                               ; preds = %57, %50
  %70 = phi double [ %68, %57 ], [ %51, %50 ]
  %71 = phi double [ %67, %57 ], [ %52, %50 ]
  %72 = phi double [ %65, %57 ], [ %53, %50 ]
  %73 = fcmp olt double %70, 0.000000e+00
  br i1 %73, label %74, label %100

74:                                               ; preds = %69
  %75 = fsub double %71, %72
  %76 = call double @sqrt(double %75) #4
  %77 = load double, double* %2, align 8, !tbaa !9
  %78 = fmul double %77, 2.000000e+00
  %79 = fdiv double %76, %78
  %80 = fmul double %77, 4.000000e+00
  %81 = load double, double* %4, align 8, !tbaa !9
  %82 = fmul double %80, %81
  %83 = load double, double* %3, align 8, !tbaa !9
  %84 = fmul double %83, %83
  %85 = fsub double %82, %84
  %86 = call double @sqrt(double %85) #4
  %87 = load double, double* %2, align 8, !tbaa !9
  %88 = fmul double %87, 2.000000e+00
  %89 = fdiv double %86, %88
  %90 = load double, double* %3, align 8, !tbaa !9
  %91 = fneg double %90
  %92 = fdiv double %91, %88
  %93 = call i32 (i8*, ...) @printf(i8* nonnull dereferenceable(1) getelementptr inbounds ([17 x i8], [17 x i8]* @.str.5, i64 0, i64 0), double %92, double %79)
  %94 = load double, double* %3, align 8, !tbaa !9
  %95 = fneg double %94
  %96 = load double, double* %2, align 8, !tbaa !9
  %97 = fmul double %96, 2.000000e+00
  %98 = fdiv double %95, %97
  %99 = call i32 (i8*, ...) @printf(i8* nonnull dereferenceable(1) getelementptr inbounds ([17 x i8], [17 x i8]* @.str.6, i64 0, i64 0), double %98, double %89)
  br label %100

100:                                              ; preds = %74, %69
  %101 = add nuw nsw i32 %13, 1
  %102 = load i32, i32* %1, align 4, !tbaa !5
  %103 = icmp slt i32 %101, %102
  br i1 %103, label %12, label %104, !llvm.loop !11

104:                                              ; preds = %100, %0
  call void @llvm.lifetime.end.p0i8(i64 8, i8* nonnull %9) #4
  call void @llvm.lifetime.end.p0i8(i64 8, i8* nonnull %8) #4
  call void @llvm.lifetime.end.p0i8(i64 8, i8* nonnull %7) #4
  call void @llvm.lifetime.end.p0i8(i64 4, i8* nonnull %5) #4
  ret i32 0
}

; Function Attrs: argmemonly mustprogress nofree nosync nounwind willreturn
declare void @llvm.lifetime.start.p0i8(i64 immarg, i8* nocapture) #1

; Function Attrs: nofree nounwind
declare noundef i32 @__isoc99_scanf(i8* nocapture noundef readonly, ...) local_unnamed_addr #2

; Function Attrs: mustprogress nofree nounwind willreturn
declare double @sqrt(double) local_unnamed_addr #3

; Function Attrs: nofree nounwind
declare noundef i32 @printf(i8* nocapture noundef readonly, ...) local_unnamed_addr #2

; Function Attrs: argmemonly mustprogress nofree nosync nounwind willreturn
declare void @llvm.lifetime.end.p0i8(i64 immarg, i8* nocapture) #1


!llvm.module.flags = !{!0, !1, !2, !3}
!llvm.ident = !{!4}

!0 = !{i32 1, !"wchar_size", i32 4}
!1 = !{i32 7, !"PIC Level", i32 2}
!2 = !{i32 7, !"PIE Level", i32 2}
!3 = !{i32 7, !"uwtable", i32 1}
!4 = !{!"clang version 13.0.0"}
!5 = !{!6, !6, i64 0}
!6 = !{!"int", !7, i64 0}
!7 = !{!"omnipotent char", !8, i64 0}
!8 = !{!"Simple C/C++ TBAA"}
!9 = !{!10, !10, i64 0}
!10 = !{!"double", !7, i64 0}
!11 = distinct !{!11, !12}
!12 = !{!"llvm.loop.mustprogress"}
